target datalayout = "e-m:e-p270:32:32-p271:32:32-p272:64:64-i64:64-i128:128-f80:128-n8:16:32:64-S128"
target triple = "x86_64-pc-linux-gnu"

%struct.alpn_spec = type { [3 x [10 x i8]], i64 }
%struct.alpn_proto_buf = type { [33 x i8], i32 }

; Function Attrs: nounwind uwtable
define dso_local i32 @Curl_alpn_to_proto_buf(ptr noundef %0, ptr noundef %1) #0 {
  %3 = alloca i32, align 4
  %4 = alloca ptr, align 8
  %5 = alloca ptr, align 8
  %6 = alloca i64, align 8
  %7 = alloca i64, align 8
  %8 = alloca i32, align 4
  %9 = alloca i8, align 1
  store ptr %0, ptr %4, align 8
  store ptr %1, ptr %5, align 8
  store i32 0, ptr %8, align 4
  %10 = load ptr, ptr %4, align 8
  call void @llvm.memset.p0.i64(ptr align 4 %10, i8 0, i64 40, i1 false)
  store i64 0, ptr %6, align 8
  br label %11

11:                                               ; preds = %67, %2
  %12 = load ptr, ptr %5, align 8
  %13 = icmp ne ptr %12, null
  br i1 %13, label %14, label %20

14:                                               ; preds = %11
  %15 = load i64, ptr %6, align 8
  %16 = load ptr, ptr %5, align 8
  %17 = getelementptr inbounds %struct.alpn_spec, ptr %16, i32 0, i32 1
  %18 = load i64, ptr %17, align 8
  %19 = icmp ult i64 %15, %18
  br label %20

20:                                               ; preds = %14, %11
  %21 = phi i1 [ false, %11 ], [ %19, %14 ]
  br i1 %21, label %22, label %70

22:                                               ; preds = %20
  %23 = load ptr, ptr %5, align 8
  %24 = getelementptr inbounds %struct.alpn_spec, ptr %23, i32 0, i32 0
  %25 = load i64, ptr %6, align 8
  %26 = getelementptr inbounds [3 x [10 x i8]], ptr %24, i64 0, i64 %25
  %27 = getelementptr inbounds [10 x i8], ptr %26, i64 0, i64 0
  %28 = call i64 @strlen(ptr noundef %27) #6
  store i64 %28, ptr %7, align 8
  %29 = load i64, ptr %7, align 8
  %30 = icmp uge i64 %29, 10
  br i1 %30, label %31, label %32

31:                                               ; preds = %22
  store i32 2, ptr %3, align 4
  br label %74

32:                                               ; preds = %22
  %33 = load i64, ptr %7, align 8
  %34 = trunc i64 %33 to i8
  store i8 %34, ptr %9, align 1
  %35 = load i32, ptr %8, align 4
  %36 = load i8, ptr %9, align 1
  %37 = zext i8 %36 to i32
  %38 = add nsw i32 %35, %37
  %39 = add nsw i32 %38, 1
  %40 = icmp sge i32 %39, 33
  br i1 %40, label %41, label %42

41:                                               ; preds = %32
  store i32 2, ptr %3, align 4
  br label %74

42:                                               ; preds = %32
  %43 = load i8, ptr %9, align 1
  %44 = load ptr, ptr %4, align 8
  %45 = getelementptr inbounds %struct.alpn_proto_buf, ptr %44, i32 0, i32 0
  %46 = load i32, ptr %8, align 4
  %47 = add nsw i32 %46, 1
  store i32 %47, ptr %8, align 4
  %48 = sext i32 %46 to i64
  %49 = getelementptr inbounds [33 x i8], ptr %45, i64 0, i64 %48
  store i8 %43, ptr %49, align 1
  %50 = load ptr, ptr %4, align 8
  %51 = getelementptr inbounds %struct.alpn_proto_buf, ptr %50, i32 0, i32 0
  %52 = getelementptr inbounds [33 x i8], ptr %51, i64 0, i64 0
  %53 = load i32, ptr %8, align 4
  %54 = sext i32 %53 to i64
  %55 = getelementptr inbounds i8, ptr %52, i64 %54
  %56 = load ptr, ptr %5, align 8
  %57 = getelementptr inbounds %struct.alpn_spec, ptr %56, i32 0, i32 0
  %58 = load i64, ptr %6, align 8
  %59 = getelementptr inbounds [3 x [10 x i8]], ptr %57, i64 0, i64 %58
  %60 = getelementptr inbounds [10 x i8], ptr %59, i64 0, i64 0
  %61 = load i8, ptr %9, align 1
  %62 = zext i8 %61 to i64
  call void @llvm.memcpy.p0.p0.i64(ptr align 1 %55, ptr align 2 %60, i64 %62, i1 false)
  %63 = load i8, ptr %9, align 1
  %64 = zext i8 %63 to i32
  %65 = load i32, ptr %8, align 4
  %66 = add nsw i32 %65, %64
  store i32 %66, ptr %8, align 4
  br label %67

67:                                               ; preds = %42
  %68 = load i64, ptr %6, align 8
  %69 = add i64 %68, 1
  store i64 %69, ptr %6, align 8
  br label %11, !llvm.loop !18

70:                                               ; preds = %20
  %71 = load i32, ptr %8, align 4
  %72 = load ptr, ptr %4, align 8
  %73 = getelementptr inbounds %struct.alpn_proto_buf, ptr %72, i32 0, i32 1
  store i32 %71, ptr %73, align 4
  store i32 0, ptr %3, align 4
  br label %74

74:                                               ; preds = %70, %41, %31
  %75 = load i32, ptr %3, align 4
  ret i32 %75
}