; Function Attrs: nofree nounwind memory(argmem: readwrite) uwtable
define dso_local range(i32 0, 3) i32 @Curl_alpn_to_proto_buf(ptr noundef writeonly captures(none) initializes((0, 40)) %0, ptr noundef readonly %1) local_unnamed_addr #10 {
  tail call void @llvm.memset.p0.i64(ptr noundef nonnull align 4 dereferenceable(40) %0, i8 0, i64 40, i1 false)
  %.not = icmp eq ptr %1, null
  br i1 %.not, label %.critedge, label %.lr.ph

.lr.ph:                                           ; preds = %2
  %3 = getelementptr inbounds nuw i8, ptr %1, i64 32
  %4 = load i64, ptr %3, align 8
  %.not36 = icmp eq i64 %4, 0
  br i1 %.not36, label %.critedge, label %.lr.ph35

.lr.ph35:                                         ; preds = %.lr.ph, %12
  %.0242834 = phi i64 [ %20, %12 ], [ 0, %.lr.ph ]
  %.0232933 = phi i32 [ %19, %12 ], [ 0, %.lr.ph ]
  %5 = getelementptr inbounds [3 x [10 x i8]], ptr %1, i64 0, i64 %.0242834
  %6 = tail call i64 @strlen(ptr noundef nonnull dereferenceable(1) %5) #19
  %7 = icmp ugt i64 %6, 9
  br i1 %7, label %.loopexit, label %8

8:                                                ; preds = %.lr.ph35
  %9 = trunc nuw i64 %6 to i32
  %10 = add nsw i32 %.0232933, %9
  %11 = icmp sgt i32 %10, 31
  br i1 %11, label %.loopexit, label %12

12:                                               ; preds = %8
  %13 = trunc nuw nsw i64 %6 to i8
  %14 = add nsw i32 %.0232933, 1
  %15 = sext i32 %.0232933 to i64
  %16 = getelementptr inbounds [33 x i8], ptr %0, i64 0, i64 %15
  store i8 %13, ptr %16, align 1
  %17 = sext i32 %14 to i64
  %18 = getelementptr inbounds i8, ptr %0, i64 %17
  tail call void @llvm.memcpy.p0.p0.i64(ptr nonnull align 1 %18, ptr nonnull align 2 %5, i64 %6, i1 false)
  %19 = add nsw i32 %14, %9
  %20 = add nuw i64 %.0242834, 1
  %21 = load i64, ptr %3, align 8
  %22 = icmp ult i64 %20, %21
  br i1 %22, label %.lr.ph35, label %.critedge

.critedge:                                        ; preds = %12, %.lr.ph, %2
  %.023.lcssa = phi i32 [ 0, %2 ], [ 0, %.lr.ph ], [ %19, %12 ]
  %23 = getelementptr inbounds nuw i8, ptr %0, i64 36
  store i32 %.023.lcssa, ptr %23, align 4
  br label %.loopexit

.loopexit:                                        ; preds = %.lr.ph35, %8, %.critedge
  %.0 = phi i32 [ 0, %.critedge ], [ 2, %8 ], [ 2, %.lr.ph35 ]
  ret i32 %.0
}